target datalayout = "e-m:e-p270:32:32-p271:32:32-p272:64:64-i64:64-i128:128-f80:128-n8:16:32:64-S128"
target triple = "x86_64-pc-linux-gnu"

; Function Attrs: nounwind uwtable
define i32 @av_timecode_adjust_ntsc_framenum2(i32 noundef %0, i32 noundef %1) #0 {
  %3 = alloca i32, align 4
  %4 = alloca i32, align 4
  %5 = alloca i32, align 4
  %6 = alloca i32, align 4
  %7 = alloca i32, align 4
  %8 = alloca i32, align 4
  %9 = alloca i32, align 4
  %10 = alloca i32, align 4
  store i32 %0, ptr %4, align 4, !tbaa !4
  store i32 %1, ptr %5, align 4, !tbaa !4
  call void @llvm.lifetime.start.p0(i64 4, ptr %6) #8
  store i32 0, ptr %6, align 4, !tbaa !4
  call void @llvm.lifetime.start.p0(i64 4, ptr %7) #8
  call void @llvm.lifetime.start.p0(i64 4, ptr %8) #8
  call void @llvm.lifetime.start.p0(i64 4, ptr %9) #8
  %11 = load i32, ptr %5, align 4, !tbaa !4
  %12 = icmp ne i32 %11, 0
  br i1 %12, label %13, label %24

13:                                               ; preds = %2
  %14 = load i32, ptr %5, align 4, !tbaa !4
  %15 = srem i32 %14, 30
  %16 = icmp eq i32 %15, 0
  br i1 %16, label %17, label %24

17:                                               ; preds = %13
  %18 = load i32, ptr %5, align 4, !tbaa !4
  %19 = sdiv i32 %18, 30
  %20 = mul nsw i32 %19, 2
  store i32 %20, ptr %6, align 4, !tbaa !4
  %21 = load i32, ptr %5, align 4, !tbaa !4
  %22 = sdiv i32 %21, 30
  %23 = mul nsw i32 %22, 17982
  store i32 %23, ptr %9, align 4, !tbaa !4
  br label %26

24:                                               ; preds = %13, %2
  %25 = load i32, ptr %4, align 4, !tbaa !4
  store i32 %25, ptr %3, align 4
  store i32 1, ptr %10, align 4
  br label %48

26:                                               ; preds = %17
  %27 = load i32, ptr %4, align 4, !tbaa !4
  %28 = load i32, ptr %9, align 4, !tbaa !4
  %29 = sdiv i32 %27, %28
  store i32 %29, ptr %7, align 4, !tbaa !4
  %30 = load i32, ptr %4, align 4, !tbaa !4
  %31 = load i32, ptr %9, align 4, !tbaa !4
  %32 = srem i32 %30, %31
  store i32 %32, ptr %8, align 4, !tbaa !4
  %33 = load i32, ptr %4, align 4, !tbaa !4
  %34 = load i32, ptr %6, align 4, !tbaa !4
  %35 = mul i32 9, %34
  %36 = load i32, ptr %7, align 4, !tbaa !4
  %37 = mul i32 %35, %36
  %38 = add i32 %33, %37
  %39 = load i32, ptr %6, align 4, !tbaa !4
  %40 = load i32, ptr %8, align 4, !tbaa !4
  %41 = load i32, ptr %6, align 4, !tbaa !4
  %42 = sub nsw i32 %40, %41
  %43 = load i32, ptr %9, align 4, !tbaa !4
  %44 = sdiv i32 %43, 10
  %45 = sdiv i32 %42, %44
  %46 = mul nsw i32 %39, %45
  %47 = add i32 %38, %46
  store i32 %47, ptr %3, align 4
  store i32 1, ptr %10, align 4
  br label %48

48:                                               ; preds = %26, %24
  call void @llvm.lifetime.end.p0(i64 4, ptr %9) #8
  call void @llvm.lifetime.end.p0(i64 4, ptr %8) #8
  call void @llvm.lifetime.end.p0(i64 4, ptr %7) #8
  call void @llvm.lifetime.end.p0(i64 4, ptr %6) #8
  %49 = load i32, ptr %3, align 4
  ret i32 %49
}