; Function Attrs: mustprogress nofree norecurse nosync nounwind willreturn memory(none) uwtable
define i32 @av_timecode_adjust_ntsc_framenum2(i32 noundef %0, i32 noundef %1) local_unnamed_addr #0 {
  %.not = icmp ne i32 %1, 0
  %3 = srem i32 %1, 30
  %4 = sdiv i32 %1, 30
  %5 = icmp eq i32 %3, 0
  %or.cond = and i1 %.not, %5
  br i1 %or.cond, label %6, label %19

6:                                                ; preds = %2
  %7 = shl nsw i32 %4, 1
  %8 = mul nsw i32 %4, 17982
  %9 = sdiv i32 %0, %8
  %10 = srem i32 %0, %8
  %11 = mul nsw i32 %4, 18
  %12 = mul i32 %11, %9
  %13 = add i32 %12, %0
  %14 = sub nsw i32 %10, %7
  %15 = sdiv i32 %8, 10
  %16 = sdiv i32 %14, %15
  %17 = mul nsw i32 %16, %7
  %18 = add i32 %13, %17
  br label %19

19:                                               ; preds = %2, %6
  %.0 = phi i32 [ %18, %6 ], [ %0, %2 ]
  ret i32 %.0
}